; ModuleID = '40/1845.c'
source_filename = "40/1845.c"
target datalayout = "e-m:e-p270:32:32-p271:32:32-p272:64:64-i64:64-f80:128-n8:16:32:64-S128"
target triple = "x86_64-pc-linux-gnu"

@.str = private unnamed_addr constant [11 x i8] c"%f%f%f%f%f\00", align 1
@.str.1 = private unnamed_addr constant [5 x i8] c"%.4f\00", align 1
@.str.2 = private unnamed_addr constant [14 x i8] c"Invalid input\00", align 1

; Function Attrs: noinline nounwind uwtable
define dso_local void @main() #0 {
  %1 = alloca float, align 4
  %2 = alloca float, align 4
  %3 = alloca float, align 4
  %4 = alloca float, align 4
  %5 = alloca float, align 4
  %6 = alloca float, align 4
  %7 = call i32 (i8*, ...) @__isoc99_scanf(i8* getelementptr inbounds ([11 x i8], [11 x i8]* @.str, i64 0, i64 0), float* %1, float* %2, float* %3, float* %4, float* %5)
  %8 = load float, float* %1, align 4
  %9 = load float, float* %2, align 4
  %10 = load float, float* %3, align 4
  %11 = load float, float* %4, align 4
  %12 = load float, float* %5, align 4
  %13 = call float @S(float %8, float %9, float %10, float %11, float %12)
  store float %13, float* %6, align 4
  %14 = load float, float* %6, align 4
  %15 = fcmp ogt float %14, 0.000000e+00
  br i1 %15, label %16, label %20

16:                                               ; preds = %0
  %17 = load float, float* %6, align 4
  %18 = fpext float %17 to double
  %19 = call i32 (i8*, ...) @printf(i8* getelementptr inbounds ([5 x i8], [5 x i8]* @.str.1, i64 0, i64 0), double %18)
  br label %22

20:                                               ; preds = %0
  %21 = call i32 (i8*, ...) @printf(i8* getelementptr inbounds ([14 x i8], [14 x i8]* @.str.2, i64 0, i64 0))
  br label %22

22:                                               ; preds = %20, %16
  ret void
}

declare dso_local i32 @__isoc99_scanf(i8*, ...) #1

; Function Attrs: noinline nounwind uwtable
define dso_local float @S(float %0, float %1, float %2, float %3, float %4) #0 {
  %6 = alloca float, align 4
  %7 = alloca float, align 4
  %8 = alloca float, align 4
  %9 = alloca float, align 4
  %10 = alloca float, align 4
  %11 = alloca double, align 8
  %12 = alloca double, align 8
  store float %0, float* %6, align 4
  store float %1, float* %7, align 4
  store float %2, float* %8, align 4
  store float %3, float* %9, align 4
  store float %4, float* %10, align 4
  %13 = load float, float* %6, align 4
  %14 = load float, float* %7, align 4
  %15 = fadd float %13, %14
  %16 = load float, float* %8, align 4
  %17 = fadd float %15, %16
  %18 = load float, float* %9, align 4
  %19 = fadd float %17, %18
  %20 = fdiv float %19, 2.000000e+00
  %21 = fpext float %20 to double
  store double %21, double* %12, align 8
  %22 = load double, double* %12, align 8
  %23 = load float, float* %6, align 4
  %24 = fpext float %23 to double
  %25 = fsub double %22, %24
  %26 = load double, double* %12, align 8
  %27 = load float, float* %7, align 4
  %28 = fpext float %27 to double
  %29 = fsub double %26, %28
  %30 = fmul double %25, %29
  %31 = load double, double* %12, align 8
  %32 = load float, float* %8, align 4
  %33 = fpext float %32 to double
  %34 = fsub double %31, %33
  %35 = fmul double %30, %34
  %36 = load double, double* %12, align 8
  %37 = load float, float* %9, align 4
  %38 = fpext float %37 to double
  %39 = fsub double %36, %38
  %40 = fmul double %35, %39
  %41 = load float, float* %6, align 4
  %42 = load float, float* %7, align 4
  %43 = fmul float %41, %42
  %44 = load float, float* %8, align 4
  %45 = fmul float %43, %44
  %46 = load float, float* %9, align 4
  %47 = fmul float %45, %46
  %48 = fpext float %47 to double
  %49 = load float, float* %10, align 4
  %50 = fdiv float %49, 7.200000e+02
  %51 = fmul float %50, 2.000000e+00
  %52 = fmul float %51, 1.000000e+02
  %53 = fpext float %52 to double
  %54 = call double @cos(double %53) #3
  %55 = fmul double %48, %54
  %56 = load float, float* %10, align 4
  %57 = fdiv float %56, 7.200000e+02
  %58 = fmul float %57, 2.000000e+00
  %59 = fmul float %58, 1.000000e+02
  %60 = fpext float %59 to double
  %61 = call double @cos(double %60) #3
  %62 = fmul double %55, %61
  %63 = fsub double %40, %62
  %64 = fcmp ogt double %63, 0.000000e+00
  br i1 %64, label %65, label %109

65:                                               ; preds = %5
  %66 = load double, double* %12, align 8
  %67 = load float, float* %6, align 4
  %68 = fpext float %67 to double
  %69 = fsub double %66, %68
  %70 = load double, double* %12, align 8
  %71 = load float, float* %7, align 4
  %72 = fpext float %71 to double
  %73 = fsub double %70, %72
  %74 = fmul double %69, %73
  %75 = load double, double* %12, align 8
  %76 = load float, float* %8, align 4
  %77 = fpext float %76 to double
  %78 = fsub double %75, %77
  %79 = fmul double %74, %78
  %80 = load double, double* %12, align 8
  %81 = load float, float* %9, align 4
  %82 = fpext float %81 to double
  %83 = fsub double %80, %82
  %84 = fmul double %79, %83
  %85 = load float, float* %6, align 4
  %86 = load float, float* %7, align 4
  %87 = fmul float %85, %86
  %88 = load float, float* %8, align 4
  %89 = fmul float %87, %88
  %90 = load float, float* %9, align 4
  %91 = fmul float %89, %90
  %92 = fpext float %91 to double
  %93 = load float, float* %10, align 4
  %94 = fdiv float %93, 7.200000e+02
  %95 = fmul float %94, 2.000000e+00
  %96 = fmul float %95, 1.000000e+02
  %97 = fpext float %96 to double
  %98 = call double @cos(double %97) #3
  %99 = fmul double %92, %98
  %100 = load float, float* %10, align 4
  %101 = fdiv float %100, 7.200000e+02
  %102 = fmul float %101, 2.000000e+00
  %103 = fmul float %102, 1.000000e+02
  %104 = fpext float %103 to double
  %105 = call double @cos(double %104) #3
  %106 = fmul double %99, %105
  %107 = fsub double %84, %106
  %108 = call double @sqrt(double %107) #3
  store double %108, double* %11, align 8
  br label %109

109:                                              ; preds = %65, %5
  %110 = load double, double* %11, align 8
  %111 = fptrunc double %110 to float
  ret float %111
}

declare dso_local i32 @printf(i8*, ...) #1

; Function Attrs: nounwind
declare dso_local double @cos(double) #2

; Function Attrs: nounwind
declare dso_local double @sqrt(double) #2


!llvm.module.flags = !{!0}
!llvm.ident = !{!1}

!0 = !{i32 1, !"wchar_size", i32 4}
!1 = !{!"clang version 10.0.0-4ubuntu1 "}
